; Function Attrs: mustprogress uwtable
define hidden void @_ZN2cv11bioinspired10RetinaImpl8getMagnoERKNS_12_OutputArrayE(ptr noundef nonnull readonly align 8 captures(none) dereferenceable(112) %0, ptr noundef nonnull align 8 dereferenceable(24) %1) unnamed_addr #3 align 2 personality ptr @__gxx_personality_v0 {
  %3 = alloca %"class.std::__cxx11::basic_string", align 8
  %4 = alloca %"class.std::allocator", align 1
  %5 = getelementptr inbounds nuw i8, ptr %0, i64 104
  %6 = load i8, ptr %5, align 8, !tbaa !53, !range !93, !noundef !94
  %7 = trunc nuw i8 %6 to i1
  br i1 %7, label %8, label %18

8:                                                ; preds = %2
  call void @llvm.lifetime.start.p0(i64 32, ptr nonnull %3) #29
  call void @llvm.lifetime.start.p0(i64 1, ptr nonnull %4) #29
  call void @_ZNSt7__cxx1112basic_stringIcSt11char_traitsIcESaIcEEC2EPKcRKS3_(ptr noundef nonnull align 8 dereferenceable(32) %3, ptr noundef nonnull @.str.48, ptr noundef nonnull align 1 dereferenceable(1) %4)
  invoke void @_ZN2cv5errorEiRKNSt7__cxx1112basic_stringIcSt11char_traitsIcESaIcEEEPKcS9_i(i32 noundef -3, ptr noundef nonnull align 8 dereferenceable(32) %3, ptr noundef nonnull @__func__._ZN2cv11bioinspired10RetinaImpl8getMagnoERKNS_12_OutputArrayE, ptr noundef nonnull @.str.47, i32 noundef 639) #30
          to label %9 unwind label %10

9:                                                ; preds = %8
  unreachable

10:                                               ; preds = %8
  %11 = landingpad { ptr, i32 }
          cleanup
  %12 = load ptr, ptr %3, align 8, !tbaa !62
  %13 = getelementptr inbounds nuw i8, ptr %3, i64 16
  %14 = icmp eq ptr %12, %13
  br i1 %14, label %_ZNKSt7__cxx1112basic_stringIcSt11char_traitsIcESaIcEE11_M_is_localEv.exit.thread.i.i, label %_ZNKSt7__cxx1112basic_stringIcSt11char_traitsIcESaIcEE11_M_is_localEv.exit.i.i

_ZNKSt7__cxx1112basic_stringIcSt11char_traitsIcESaIcEE11_M_is_localEv.exit.thread.i.i: ; preds = %10
  %15 = getelementptr inbounds nuw i8, ptr %3, i64 8
  %16 = load i64, ptr %15, align 8, !tbaa !66
  %17 = icmp ult i64 %16, 16
  call void @llvm.assume(i1 %17)
  br label %_ZNSt7__cxx1112basic_stringIcSt11char_traitsIcESaIcEED2Ev.exit

_ZNKSt7__cxx1112basic_stringIcSt11char_traitsIcESaIcEE11_M_is_localEv.exit.i.i: ; preds = %10
  call void @_ZdlPv(ptr noundef %12) #28
  br label %_ZNSt7__cxx1112basic_stringIcSt11char_traitsIcESaIcEED2Ev.exit

_ZNSt7__cxx1112basic_stringIcSt11char_traitsIcESaIcEED2Ev.exit: ; preds = %_ZNKSt7__cxx1112basic_stringIcSt11char_traitsIcESaIcEE11_M_is_localEv.exit.i.i, %_ZNKSt7__cxx1112basic_stringIcSt11char_traitsIcESaIcEE11_M_is_localEv.exit.thread.i.i
  call void @llvm.lifetime.end.p0(i64 1, ptr nonnull %4) #29
  call void @llvm.lifetime.end.p0(i64 32, ptr nonnull %3) #29
  resume { ptr, i32 } %11

18:                                               ; preds = %2
  %19 = getelementptr inbounds nuw i8, ptr %0, i64 88
  %20 = load ptr, ptr %19, align 8, !tbaa !70
  %21 = getelementptr inbounds nuw i8, ptr %20, i64 536
  %22 = getelementptr inbounds nuw i8, ptr %20, i64 72
  %23 = load i64, ptr %22, align 8, !tbaa !87
  %24 = trunc i64 %23 to i32
  %25 = getelementptr inbounds nuw i8, ptr %20, i64 80
  %26 = load i64, ptr %25, align 8, !tbaa !86
  %27 = trunc i64 %26 to i32
  tail call void @_ZN2cv11bioinspired10RetinaImpl28_convertValarrayBuffer2cvMatERKSt8valarrayIfEjjbRKNS_12_OutputArrayE(ptr nonnull align 8 poison, ptr noundef nonnull align 8 dereferenceable(16) %21, i32 noundef %24, i32 noundef %27, i1 noundef zeroext false, ptr noundef nonnull align 8 dereferenceable(24) %1)
  ret void
}